target datalayout = "e-m:e-p270:32:32-p271:32:32-p272:64:64-i64:64-i128:128-f80:128-n8:16:32:64-S128"
target triple = "x86_64-pc-linux-gnu"

%struct.openapi_resp_single_t = type { ptr, ptr, ptr, ptr }
%struct.data_parser_dump_cli_ctxt_t = type { i32, i32, ptr, ptr, ptr }
%struct.slurmdbd_ping_t = type { ptr, i8, i64, i32 }

@db_conn = dso_local global ptr null, align 8
@mime_type = dso_local global ptr null, align 8
@data_parser = dso_local global ptr null, align 8
@exit_code = dso_local global i32 0, align 4
@.str.106 = private unnamed_addr constant [33 x i8] c"Failed to perform slurmdbd pings\00", align 1
@.str.107 = private unnamed_addr constant [3 x i8] c"UP\00", align 1
@.str.108 = private unnamed_addr constant [5 x i8] c"DOWN\00", align 1
@.str.109 = private unnamed_addr constant [8 x i8] c"primary\00", align 1
@.str.110 = private unnamed_addr constant [7 x i8] c"backup\00", align 1
@.str.111 = private unnamed_addr constant [26 x i8] c"slurmdbd(%s) at %s is %s\0A\00", align 1
@_set_ping_exit_code.slurmdbd_up = internal global i8 0, align 1

; Function Attrs: nounwind uwtable
define internal void @_set_ping_exit_code(ptr noundef %0) #0 {
  %2 = alloca ptr, align 8
  store ptr %0, ptr %2, align 8
  %3 = load ptr, ptr %2, align 8
  %4 = getelementptr inbounds nuw %struct.slurmdbd_ping_t, ptr %3, i32 0, i32 1
  %5 = load i8, ptr %4, align 8, !range !12, !noundef !13
  %6 = trunc i8 %5 to i1
  br i1 %6, label %7, label %8

7:                                                ; preds = %1
  store i32 0, ptr @exit_code, align 4
  store i8 1, ptr @_set_ping_exit_code.slurmdbd_up, align 1
  br label %13

8:                                                ; preds = %1
  %9 = load i8, ptr @_set_ping_exit_code.slurmdbd_up, align 1, !range !12, !noundef !13
  %10 = trunc i8 %9 to i1
  br i1 %10, label %12, label %11

11:                                               ; preds = %8
  store i32 1, ptr @exit_code, align 4
  br label %12

12:                                               ; preds = %11, %8
  br label %13

13:                                               ; preds = %12, %7
  ret void
}

; Function Attrs: nounwind uwtable
define internal void @_print_db_ping(ptr noundef %0) #0 {
  %2 = alloca ptr, align 8
  %3 = alloca ptr, align 8
  %4 = alloca ptr, align 8
  store ptr %0, ptr %2, align 8
  call void @llvm.lifetime.start.p0(i64 8, ptr %3) #12
  call void @llvm.lifetime.start.p0(i64 8, ptr %4) #12
  %5 = load ptr, ptr %2, align 8
  %6 = getelementptr inbounds nuw %struct.slurmdbd_ping_t, ptr %5, i32 0, i32 1
  %7 = load i8, ptr %6, align 8, !range !12, !noundef !13
  %8 = trunc i8 %7 to i1
  br i1 %8, label %9, label %10

9:                                                ; preds = %1
  store ptr @.str.107, ptr %3, align 8
  br label %11

10:                                               ; preds = %1
  store ptr @.str.108, ptr %3, align 8
  br label %11

11:                                               ; preds = %10, %9
  %12 = load ptr, ptr %2, align 8
  %13 = getelementptr inbounds nuw %struct.slurmdbd_ping_t, ptr %12, i32 0, i32 3
  %14 = load i32, ptr %13, align 8
  %15 = icmp eq i32 %14, 0
  br i1 %15, label %16, label %17

16:                                               ; preds = %11
  store ptr @.str.109, ptr %4, align 8
  br label %18

17:                                               ; preds = %11
  store ptr @.str.110, ptr %4, align 8
  br label %18

18:                                               ; preds = %17, %16
  %19 = load ptr, ptr %4, align 8
  %20 = load ptr, ptr %2, align 8
  %21 = getelementptr inbounds nuw %struct.slurmdbd_ping_t, ptr %20, i32 0, i32 0
  %22 = load ptr, ptr %21, align 8
  %23 = load ptr, ptr %3, align 8
  %24 = call i32 (ptr, ...) @printf(ptr noundef @.str.111, ptr noundef %19, ptr noundef %22, ptr noundef %23)
  call void @llvm.lifetime.end.p0(i64 8, ptr %4) #12
  call void @llvm.lifetime.end.p0(i64 8, ptr %3) #12
  ret void
}

; Function Attrs: nounwind uwtable
define internal i32 @_ping(i32 noundef %0, ptr noundef %1) #0 {
  %3 = alloca i32, align 4
  %4 = alloca i32, align 4
  %5 = alloca ptr, align 8
  %6 = alloca i32, align 4
  %7 = alloca ptr, align 8
  %8 = alloca i32, align 4
  %9 = alloca %struct.openapi_resp_single_t, align 8
  %10 = alloca %struct.data_parser_dump_cli_ctxt_t, align 8
  %11 = alloca ptr, align 8
  %12 = alloca i32, align 4
  store i32 %0, ptr %4, align 4
  store ptr %1, ptr %5, align 8
  call void @llvm.lifetime.start.p0(i64 4, ptr %6) #12
  store i32 0, ptr %6, align 4
  call void @llvm.lifetime.start.p0(i64 8, ptr %7) #12
  store ptr null, ptr %7, align 8
  %13 = call ptr @slurmdb_ping_all()
  store ptr %13, ptr %7, align 8
  %14 = icmp ne ptr %13, null
  br i1 %14, label %17, label %15

15:                                               ; preds = %2
  %16 = call i32 (ptr, ...) @error(ptr noundef @.str.106)
  store i32 -1, ptr %3, align 4
  store i32 1, ptr %8, align 4
  br label %141

17:                                               ; preds = %2
  %18 = load ptr, ptr @mime_type, align 8
  %19 = icmp ne ptr %18, null
  br i1 %19, label %20, label %116

20:                                               ; preds = %17
  br label %21

21:                                               ; preds = %20
  call void @llvm.lifetime.start.p0(i64 32, ptr %9) #12
  call void @llvm.memset.p0.i64(ptr align 8 %9, i8 0, i64 32, i1 false)
  %22 = getelementptr inbounds nuw %struct.openapi_resp_single_t, ptr %9, i32 0, i32 3
  %23 = load ptr, ptr %7, align 8
  store ptr %23, ptr %22, align 8
  br label %24

24:                                               ; preds = %21
  call void @llvm.lifetime.start.p0(i64 32, ptr %10) #12
  %25 = getelementptr inbounds nuw %struct.data_parser_dump_cli_ctxt_t, ptr %10, i32 0, i32 0
  store i32 463606195, ptr %25, align 8
  %26 = getelementptr inbounds nuw %struct.data_parser_dump_cli_ctxt_t, ptr %10, i32 0, i32 1
  store i32 0, ptr %26, align 4
  %27 = getelementptr inbounds nuw %struct.data_parser_dump_cli_ctxt_t, ptr %10, i32 0, i32 2
  store ptr null, ptr %27, align 8
  %28 = getelementptr inbounds nuw %struct.data_parser_dump_cli_ctxt_t, ptr %10, i32 0, i32 3
  store ptr null, ptr %28, align 8
  %29 = getelementptr inbounds nuw %struct.data_parser_dump_cli_ctxt_t, ptr %10, i32 0, i32 4
  %30 = load ptr, ptr @data_parser, align 8
  store ptr %30, ptr %29, align 8
  call void @llvm.lifetime.start.p0(i64 8, ptr %11) #12
  store ptr %9, ptr %11, align 8
  %31 = getelementptr inbounds nuw %struct.openapi_resp_single_t, ptr %9, i32 0, i32 0
  %32 = load ptr, ptr %31, align 8
  %33 = icmp ne ptr %32, null
  br i1 %33, label %40, label %34

34:                                               ; preds = %24
  %35 = load i32, ptr %4, align 4
  %36 = load ptr, ptr %5, align 8
  %37 = load ptr, ptr @mime_type, align 8
  %38 = call ptr @data_parser_cli_meta(i32 noundef %35, ptr noundef %36, ptr noundef %37)
  %39 = getelementptr inbounds nuw %struct.openapi_resp_single_t, ptr %9, i32 0, i32 0
  store ptr %38, ptr %39, align 8
  br label %40

40:                                               ; preds = %34, %24
  %41 = getelementptr inbounds nuw %struct.openapi_resp_single_t, ptr %9, i32 0, i32 1
  %42 = load ptr, ptr %41, align 8
  %43 = icmp ne ptr %42, null
  br i1 %43, label %48, label %44

44:                                               ; preds = %40
  %45 = call ptr @list_create(ptr noundef @free_openapi_resp_error)
  %46 = getelementptr inbounds nuw %struct.data_parser_dump_cli_ctxt_t, ptr %10, i32 0, i32 2
  store ptr %45, ptr %46, align 8
  %47 = getelementptr inbounds nuw %struct.openapi_resp_single_t, ptr %9, i32 0, i32 1
  store ptr %45, ptr %47, align 8
  br label %52

48:                                               ; preds = %40
  %49 = getelementptr inbounds nuw %struct.openapi_resp_single_t, ptr %9, i32 0, i32 1
  %50 = load ptr, ptr %49, align 8
  %51 = getelementptr inbounds nuw %struct.data_parser_dump_cli_ctxt_t, ptr %10, i32 0, i32 2
  store ptr %50, ptr %51, align 8
  br label %52

52:                                               ; preds = %48, %44
  %53 = getelementptr inbounds nuw %struct.openapi_resp_single_t, ptr %9, i32 0, i32 2
  %54 = load ptr, ptr %53, align 8
  %55 = icmp ne ptr %54, null
  br i1 %55, label %60, label %56

56:                                               ; preds = %52
  %57 = call ptr @list_create(ptr noundef @free_openapi_resp_warning)
  %58 = getelementptr inbounds nuw %struct.data_parser_dump_cli_ctxt_t, ptr %10, i32 0, i32 3
  store ptr %57, ptr %58, align 8
  %59 = getelementptr inbounds nuw %struct.openapi_resp_single_t, ptr %9, i32 0, i32 2
  store ptr %57, ptr %59, align 8
  br label %64

60:                                               ; preds = %52
  %61 = getelementptr inbounds nuw %struct.openapi_resp_single_t, ptr %9, i32 0, i32 2
  %62 = load ptr, ptr %61, align 8
  %63 = getelementptr inbounds nuw %struct.data_parser_dump_cli_ctxt_t, ptr %10, i32 0, i32 3
  store ptr %62, ptr %63, align 8
  br label %64

64:                                               ; preds = %60, %56
  %65 = load ptr, ptr %11, align 8
  %66 = load ptr, ptr @db_conn, align 8
  %67 = load ptr, ptr @mime_type, align 8
  %68 = load ptr, ptr @data_parser, align 8
  %69 = getelementptr inbounds nuw %struct.openapi_resp_single_t, ptr %9, i32 0, i32 0
  %70 = load ptr, ptr %69, align 8
  %71 = call i32 @data_parser_dump_cli_stdout(i32 noundef 302, ptr noundef %65, i32 noundef 32, ptr noundef %66, ptr noundef %67, ptr noundef %68, ptr noundef %10, ptr noundef %70)
  store i32 %71, ptr %6, align 4
  br label %72

72:                                               ; preds = %64
  %73 = load ptr, ptr %11, align 8
  %74 = icmp ne ptr %73, null
  br i1 %74, label %75, label %109

75:                                               ; preds = %72
  br label %76

76:                                               ; preds = %75
  %77 = load ptr, ptr %11, align 8
  %78 = getelementptr inbounds nuw %struct.openapi_resp_single_t, ptr %77, i32 0, i32 2
  %79 = load ptr, ptr %78, align 8
  %80 = icmp ne ptr %79, null
  br i1 %80, label %81, label %85

81:                                               ; preds = %76
  %82 = load ptr, ptr %11, align 8
  %83 = getelementptr inbounds nuw %struct.openapi_resp_single_t, ptr %82, i32 0, i32 2
  %84 = load ptr, ptr %83, align 8
  call void @list_destroy(ptr noundef %84)
  br label %85

85:                                               ; preds = %81, %76
  %86 = load ptr, ptr %11, align 8
  %87 = getelementptr inbounds nuw %struct.openapi_resp_single_t, ptr %86, i32 0, i32 2
  store ptr null, ptr %87, align 8
  br label %88

88:                                               ; preds = %85
  br label %89

89:                                               ; preds = %88
  br label %90

90:                                               ; preds = %89
  %91 = load ptr, ptr %11, align 8
  %92 = getelementptr inbounds nuw %struct.openapi_resp_single_t, ptr %91, i32 0, i32 1
  %93 = load ptr, ptr %92, align 8
  %94 = icmp ne ptr %93, null
  br i1 %94, label %95, label %99

95:                                               ; preds = %90
  %96 = load ptr, ptr %11, align 8
  %97 = getelementptr inbounds nuw %struct.openapi_resp_single_t, ptr %96, i32 0, i32 1
  %98 = load ptr, ptr %97, align 8
  call void @list_destroy(ptr noundef %98)
  br label %99

99:                                               ; preds = %95, %90
  %100 = load ptr, ptr %11, align 8
  %101 = getelementptr inbounds nuw %struct.openapi_resp_single_t, ptr %100, i32 0, i32 1
  store ptr null, ptr %101, align 8
  br label %102

102:                                              ; preds = %99
  br label %103

103:                                              ; preds = %102
  %104 = load ptr, ptr %11, align 8
  %105 = getelementptr inbounds nuw %struct.openapi_resp_single_t, ptr %104, i32 0, i32 0
  %106 = load ptr, ptr %105, align 8
  call void @free_openapi_resp_meta(ptr noundef %106)
  %107 = load ptr, ptr %11, align 8
  %108 = getelementptr inbounds nuw %struct.openapi_resp_single_t, ptr %107, i32 0, i32 0
  store ptr null, ptr %108, align 8
  br label %109

109:                                              ; preds = %103, %72
  br label %110

110:                                              ; preds = %109
  br label %111

111:                                              ; preds = %110
  call void @llvm.lifetime.end.p0(i64 8, ptr %11) #12
  call void @llvm.lifetime.end.p0(i64 32, ptr %10) #12
  br label %112

112:                                              ; preds = %111
  br label %113

113:                                              ; preds = %112
  call void @llvm.lifetime.end.p0(i64 32, ptr %9) #12
  br label %114

114:                                              ; preds = %113
  br label %115

115:                                              ; preds = %114
  br label %139

116:                                              ; preds = %17
  call void @llvm.lifetime.start.p0(i64 4, ptr %12) #12
  store i32 0, ptr %12, align 4
  br label %117

117:                                              ; preds = %135, %116
  %118 = load ptr, ptr %7, align 8
  %119 = load i32, ptr %12, align 4
  %120 = sext i32 %119 to i64
  %121 = getelementptr inbounds %struct.slurmdbd_ping_t, ptr %118, i64 %120
  %122 = getelementptr inbounds nuw %struct.slurmdbd_ping_t, ptr %121, i32 0, i32 0
  %123 = load ptr, ptr %122, align 8
  %124 = icmp ne ptr %123, null
  br i1 %124, label %126, label %125

125:                                              ; preds = %117
  store i32 12, ptr %8, align 4
  call void @llvm.lifetime.end.p0(i64 4, ptr %12) #12
  br label %138

126:                                              ; preds = %117
  %127 = load ptr, ptr %7, align 8
  %128 = load i32, ptr %12, align 4
  %129 = sext i32 %128 to i64
  %130 = getelementptr inbounds %struct.slurmdbd_ping_t, ptr %127, i64 %129
  call void @_print_db_ping(ptr noundef %130)
  %131 = load ptr, ptr %7, align 8
  %132 = load i32, ptr %12, align 4
  %133 = sext i32 %132 to i64
  %134 = getelementptr inbounds %struct.slurmdbd_ping_t, ptr %131, i64 %133
  call void @_set_ping_exit_code(ptr noundef %134)
  br label %135

135:                                              ; preds = %126
  %136 = load i32, ptr %12, align 4
  %137 = add nsw i32 %136, 1
  store i32 %137, ptr %12, align 4
  br label %117, !llvm.loop !16

138:                                              ; preds = %125
  br label %139

139:                                              ; preds = %138, %115
  call void @slurm_xfree(ptr noundef %7)
  %140 = load i32, ptr %6, align 4
  store i32 %140, ptr %3, align 4
  store i32 1, ptr %8, align 4
  br label %141

141:                                              ; preds = %139, %15
  call void @llvm.lifetime.end.p0(i64 8, ptr %7) #12
  call void @llvm.lifetime.end.p0(i64 4, ptr %6) #12
  %142 = load i32, ptr %3, align 4
  ret i32 %142
}