; Function Attrs: nounwind uwtable
define internal fastcc i32 @_ping(i32 noundef range(i32 1, -2147483648) %0, ptr noundef %1) unnamed_addr #7 {
  %3 = alloca ptr, align 8
  %4 = alloca %struct.openapi_resp_single_t, align 8
  %5 = alloca %struct.data_parser_dump_cli_ctxt_t, align 8
  call void @llvm.lifetime.start.p0(i64 8, ptr nonnull %3) #15
  %6 = tail call ptr @slurmdb_ping_all() #15
  store ptr %6, ptr %3, align 8
  %.not = icmp eq ptr %6, null
  br i1 %.not, label %7, label %9

7:                                                ; preds = %2
  %8 = tail call i32 (ptr, ...) @error(ptr noundef nonnull @.str.106) #15
  br label %51

9:                                                ; preds = %2
  %10 = load ptr, ptr @mime_type, align 8
  %.not23 = icmp eq ptr %10, null
  br i1 %.not23, label %.preheader, label %12

.preheader:                                       ; preds = %9
  %11 = load ptr, ptr %6, align 8
  %.not2430 = icmp eq ptr %11, null
  br i1 %.not2430, label %.loopexit, label %.lr.ph

12:                                               ; preds = %9
  call void @llvm.lifetime.start.p0(i64 32, ptr nonnull %4) #15
  %13 = getelementptr inbounds nuw i8, ptr %4, i64 24
  store ptr %6, ptr %13, align 8
  call void @llvm.lifetime.start.p0(i64 32, ptr nonnull %5) #15
  store i32 463606195, ptr %5, align 8
  %14 = getelementptr inbounds nuw i8, ptr %5, i64 4
  %15 = getelementptr inbounds nuw i8, ptr %5, i64 8
  %16 = getelementptr inbounds nuw i8, ptr %5, i64 16
  %17 = getelementptr inbounds nuw i8, ptr %5, i64 24
  store i32 0, ptr %14, align 4
  %18 = load ptr, ptr @data_parser, align 8
  store ptr %18, ptr %17, align 8
  %19 = tail call ptr @data_parser_cli_meta(i32 noundef %0, ptr noundef %1, ptr noundef nonnull %10) #15
  store ptr %19, ptr %4, align 8
  %20 = getelementptr inbounds nuw i8, ptr %4, i64 8
  %21 = tail call ptr @list_create(ptr noundef nonnull @free_openapi_resp_error) #15
  store ptr %21, ptr %20, align 8
  store ptr %21, ptr %15, align 8
  %22 = getelementptr inbounds nuw i8, ptr %4, i64 16
  %23 = tail call ptr @list_create(ptr noundef nonnull @free_openapi_resp_warning) #15
  store ptr %23, ptr %22, align 8
  store ptr %23, ptr %16, align 8
  %24 = load ptr, ptr @db_conn, align 8
  %25 = load ptr, ptr @mime_type, align 8
  %26 = load ptr, ptr @data_parser, align 8
  %27 = call i32 @data_parser_dump_cli_stdout(i32 noundef 302, ptr noundef nonnull %4, i32 noundef 32, ptr noundef %24, ptr noundef %25, ptr noundef %26, ptr noundef nonnull %5, ptr noundef %19) #15
  %28 = load ptr, ptr %22, align 8
  %.not28 = icmp eq ptr %28, null
  br i1 %.not28, label %30, label %29

29:                                               ; preds = %12
  call void @list_destroy(ptr noundef nonnull %28) #15
  br label %30

30:                                               ; preds = %29, %12
  store ptr null, ptr %22, align 8
  %31 = load ptr, ptr %20, align 8
  %.not29 = icmp eq ptr %31, null
  br i1 %.not29, label %33, label %32

32:                                               ; preds = %30
  call void @list_destroy(ptr noundef nonnull %31) #15
  br label %33

33:                                               ; preds = %32, %30
  store ptr null, ptr %20, align 8
  %34 = load ptr, ptr %4, align 8
  call void @free_openapi_resp_meta(ptr noundef %34) #15
  call void @llvm.lifetime.end.p0(i64 32, ptr nonnull %5) #15
  call void @llvm.lifetime.end.p0(i64 32, ptr nonnull %4) #15
  br label %.loopexit

.lr.ph:                                           ; preds = %.preheader, %_set_ping_exit_code.exit
  %indvars.iv = phi i64 [ %indvars.iv.next, %_set_ping_exit_code.exit ], [ 0, %.preheader ]
  %35 = phi ptr [ %50, %_set_ping_exit_code.exit ], [ %11, %.preheader ]
  %36 = getelementptr inbounds nuw %struct.slurmdbd_ping_t, ptr %6, i64 %indvars.iv
  %37 = getelementptr inbounds nuw i8, ptr %36, i64 8
  %38 = load i8, ptr %37, align 8, !range !14, !noundef !15
  %39 = trunc nuw i8 %38 to i1
  %.str.107..str.108.i = select i1 %39, ptr @.str.107, ptr @.str.108
  %40 = getelementptr inbounds nuw i8, ptr %36, i64 24
  %41 = load i32, ptr %40, align 8
  %42 = icmp eq i32 %41, 0
  %.0.i = select i1 %42, ptr @.str.109, ptr @.str.110
  %43 = tail call i32 (ptr, ...) @printf(ptr noundef nonnull dereferenceable(1) @.str.111, ptr noundef nonnull %.0.i, ptr noundef nonnull %35, ptr noundef nonnull %.str.107..str.108.i)
  %44 = getelementptr %struct.slurmdbd_ping_t, ptr %6, i64 %indvars.iv, i32 1
  %.val = load i8, ptr %44, align 8, !range !14, !noundef !15
  %45 = trunc nuw i8 %.val to i1
  br i1 %45, label %46, label %47

46:                                               ; preds = %.lr.ph
  store i32 0, ptr @exit_code, align 4
  store i1 true, ptr @_set_ping_exit_code.slurmdbd_up, align 1
  br label %_set_ping_exit_code.exit

47:                                               ; preds = %.lr.ph
  %.b1.i = load i1, ptr @_set_ping_exit_code.slurmdbd_up, align 1
  br i1 %.b1.i, label %_set_ping_exit_code.exit, label %48

48:                                               ; preds = %47
  store i32 1, ptr @exit_code, align 4
  br label %_set_ping_exit_code.exit

_set_ping_exit_code.exit:                         ; preds = %46, %47, %48
  %indvars.iv.next = add nuw nsw i64 %indvars.iv, 1
  %49 = getelementptr inbounds nuw %struct.slurmdbd_ping_t, ptr %6, i64 %indvars.iv.next
  %50 = load ptr, ptr %49, align 8
  %.not24 = icmp eq ptr %50, null
  br i1 %.not24, label %.loopexit, label %.lr.ph, !llvm.loop !16

.loopexit:                                        ; preds = %_set_ping_exit_code.exit, %.preheader, %33
  %.018 = phi i32 [ %27, %33 ], [ 0, %.preheader ], [ 0, %_set_ping_exit_code.exit ]
  call void @slurm_xfree(ptr noundef nonnull %3) #15
  br label %51

51:                                               ; preds = %.loopexit, %7
  %.017 = phi i32 [ %.018, %.loopexit ], [ -1, %7 ]
  call void @llvm.lifetime.end.p0(i64 8, ptr nonnull %3) #15
  ret i32 %.017
}